; Function Attrs: nounwind uwtable
define zeroext range(i8 0, 2) i8 @l_Lean_IR_EmitC_paramEqArg(ptr noundef readonly captures(none) %0, ptr noundef %1) local_unnamed_addr #0 {
  %3 = ptrtoint ptr %1 to i64
  %4 = and i64 %3, 1
  %.not.i = icmp eq i64 %4, 0
  br i1 %.not.i, label %8, label %5

5:                                                ; preds = %2
  %6 = lshr i64 %3, 1
  %7 = trunc i64 %6 to i32
  br label %lean_obj_tag.exit

8:                                                ; preds = %2
  %9 = getelementptr i8, ptr %1, i64 4
  %.val.i = load i32, ptr %9, align 4
  %10 = lshr i32 %.val.i, 24
  br label %lean_obj_tag.exit

lean_obj_tag.exit:                                ; preds = %5, %8
  %.0.i7 = phi i32 [ %7, %5 ], [ %10, %8 ]
  %11 = icmp eq i32 %.0.i7, 0
  br i1 %11, label %12, label %27

12:                                               ; preds = %lean_obj_tag.exit
  %13 = getelementptr inbounds nuw i8, ptr %1, i64 8
  %14 = load ptr, ptr %13, align 8, !tbaa !4
  %15 = getelementptr inbounds nuw i8, ptr %0, i64 8
  %16 = load ptr, ptr %15, align 8, !tbaa !4
  %17 = ptrtoint ptr %16 to i64
  %18 = and i64 %17, 1
  %19 = icmp ne i64 %18, 0
  %20 = ptrtoint ptr %14 to i64
  %21 = and i64 %20, 1
  %22 = icmp ne i64 %21, 0
  %or.cond = select i1 %19, i1 %22, i1 false
  br i1 %or.cond, label %23, label %.critedge.i, !prof !19

23:                                               ; preds = %12
  %24 = icmp eq ptr %16, %14
  br label %lean_nat_eq.exit

.critedge.i:                                      ; preds = %12
  %25 = tail call zeroext i1 @lean_nat_big_eq(ptr noundef %16, ptr noundef %14) #5
  br label %lean_nat_eq.exit

lean_nat_eq.exit:                                 ; preds = %23, %.critedge.i
  %.0.i = phi i1 [ %24, %23 ], [ %25, %.critedge.i ]
  %26 = zext i1 %.0.i to i8
  br label %27

27:                                               ; preds = %lean_obj_tag.exit, %lean_nat_eq.exit
  %.0 = phi i8 [ %26, %lean_nat_eq.exit ], [ 0, %lean_obj_tag.exit ]
  ret i8 %.0
}